; Function Attrs: mustprogress uwtable
define hidden void @_ZN5lackr16push_abstractionEv(ptr noundef nonnull readonly align 8 captures(none) dereferenceable(297) %0) local_unnamed_addr #3 align 2 {
  %2 = getelementptr inbounds nuw i8, ptr %0, i64 48
  %3 = load ptr, ptr %2, align 8, !tbaa !10
  %4 = icmp eq ptr %3, null
  br i1 %4, label %._crit_edge, label %_ZNK15ref_vector_coreI4expr19ref_manager_wrapperIS0_11ast_managerEE3endEv.exit

_ZNK15ref_vector_coreI4expr19ref_manager_wrapperIS0_11ast_managerEE3endEv.exit: ; preds = %1
  %5 = getelementptr inbounds i8, ptr %3, i64 -4
  %6 = load i32, ptr %5, align 4, !tbaa !83
  %7 = zext i32 %6 to i64
  %8 = getelementptr inbounds nuw ptr, ptr %3, i64 %7
  %.not8 = icmp eq i32 %6, 0
  br i1 %.not8, label %._crit_edge, label %.lr.ph

.lr.ph:                                           ; preds = %_ZNK15ref_vector_coreI4expr19ref_manager_wrapperIS0_11ast_managerEE3endEv.exit
  %9 = getelementptr inbounds nuw i8, ptr %0, i64 112
  br label %10

._crit_edge:                                      ; preds = %10, %1, %_ZNK15ref_vector_coreI4expr19ref_manager_wrapperIS0_11ast_managerEE3endEv.exit
  ret void

10:                                               ; preds = %.lr.ph, %10
  %.09 = phi ptr [ %3, %.lr.ph ], [ %13, %10 ]
  %11 = load ptr, ptr %.09, align 8, !tbaa !84
  %12 = load ptr, ptr %9, align 8, !tbaa !30
  tail call void @_ZN6solver11assert_exprEP4expr(ptr noundef nonnull align 8 dereferenceable(96) %12, ptr noundef %11)
  %13 = getelementptr inbounds nuw i8, ptr %.09, i64 8
  %.not = icmp eq ptr %13, %8
  br i1 %.not, label %._crit_edge, label %10
}